; Function Attrs: mustprogress uwtable
define noundef i32 @_ZN6colvar18calc_cvc_JacobiansEim(ptr nocapture noundef nonnull readonly align 8 dereferenceable(4624) %0, i32 noundef %1, i64 noundef %2) local_unnamed_addr #2 align 2 {
  %.not = icmp eq i64 %2, 0
  %4 = getelementptr inbounds i8, ptr %0, i64 3584
  %5 = load i64, ptr %4, align 8
  %6 = select i1 %.not, i64 %5, i64 %2
  %7 = getelementptr inbounds i8, ptr %0, i64 368
  %8 = load ptr, ptr %7, align 8
  %9 = getelementptr inbounds i8, ptr %8, i64 289
  %10 = load i8, ptr %9, align 1
  %11 = trunc i8 %10 to i1
  br i1 %11, label %12, label %50

12:                                               ; preds = %3
  tail call void @_ZN12colvarmodule14increase_depthEv()
  %13 = sext i32 %1 to i64
  %14 = getelementptr inbounds i8, ptr %0, i64 4432
  %15 = getelementptr inbounds i8, ptr %0, i64 4440
  %16 = load ptr, ptr %15, align 8
  %17 = load ptr, ptr %14, align 8
  %18 = ptrtoint ptr %16 to i64
  %19 = ptrtoint ptr %17 to i64
  %20 = sub i64 %18, %19
  %21 = ashr exact i64 %20, 3
  %22 = icmp ugt i64 %21, %13
  %23 = icmp ne i64 %6, 0
  %24 = select i1 %22, i1 %23, i1 false
  br i1 %24, label %.lr.ph, label %._crit_edge

.lr.ph:                                           ; preds = %12, %39
  %25 = phi ptr [ %40, %39 ], [ %17, %12 ]
  %26 = phi ptr [ %41, %39 ], [ %16, %12 ]
  %.013 = phi i64 [ %.1, %39 ], [ 0, %12 ]
  %.01012 = phi i64 [ %42, %39 ], [ %13, %12 ]
  %27 = getelementptr inbounds ptr, ptr %25, i64 %.01012
  %28 = load ptr, ptr %27, align 8
  %29 = getelementptr inbounds i8, ptr %28, i64 368
  %30 = load ptr, ptr %29, align 8
  %31 = getelementptr inbounds i8, ptr %30, i64 1
  %32 = load i8, ptr %31, align 1
  %33 = trunc i8 %32 to i1
  br i1 %33, label %34, label %39

34:                                               ; preds = %.lr.ph
  %35 = add nuw i64 %.013, 1
  %36 = load ptr, ptr %28, align 8
  %37 = getelementptr inbounds i8, ptr %36, i64 160
  %38 = load ptr, ptr %37, align 8
  tail call void %38(ptr noundef nonnull align 8 dereferenceable(1648) %28)
  %.pre = load ptr, ptr %15, align 8
  %.pre14 = load ptr, ptr %14, align 8
  br label %39

39:                                               ; preds = %.lr.ph, %34
  %40 = phi ptr [ %.pre14, %34 ], [ %25, %.lr.ph ]
  %41 = phi ptr [ %.pre, %34 ], [ %26, %.lr.ph ]
  %.1 = phi i64 [ %35, %34 ], [ %.013, %.lr.ph ]
  %42 = add nuw i64 %.01012, 1
  %43 = ptrtoint ptr %41 to i64
  %44 = ptrtoint ptr %40 to i64
  %45 = sub i64 %43, %44
  %46 = ashr exact i64 %45, 3
  %47 = icmp ult i64 %42, %46
  %48 = icmp ult i64 %.1, %6
  %49 = select i1 %47, i1 %48, i1 false
  br i1 %49, label %.lr.ph, label %._crit_edge, !llvm.loop !135

._crit_edge:                                      ; preds = %39, %12
  tail call void @_ZN12colvarmodule14decrease_depthEv()
  br label %50

50:                                               ; preds = %._crit_edge, %3
  ret i32 0
}